target datalayout = "e-m:e-p270:32:32-p271:32:32-p272:64:64-i64:64-i128:128-f80:128-n8:16:32:64-S128"
target triple = "x86_64-pc-linux-gnu"

%"class.cv::ppf_match_3d::PPF3DDetector" = type <{ ptr, double, double, double, double, double, double, %"class.cv::Mat", %"class.cv::Mat", i32, [4 x i8], ptr, ptr, double, double, i8, [3 x i8], i32, i8, [7 x i8] }>
%"class.cv::Mat" = type { i32, i32, i32, i32, ptr, ptr, ptr, ptr, ptr, ptr, %"struct.cv::MatSize", %"struct.cv::MatStep" }
%"struct.cv::MatSize" = type { ptr }
%"struct.cv::MatStep" = type { ptr, [2 x i64] }

; Function Attrs: mustprogress nounwind uwtable
define void @_ZN2cv12ppf_match_3d13PPF3DDetector15setSearchParamsEddb(ptr noundef nonnull align 8 dereferenceable(297) %0, double noundef %1, double noundef %2, i1 noundef zeroext %3) #5 align 2 {
  %5 = alloca ptr, align 8
  %6 = alloca double, align 8
  %7 = alloca double, align 8
  %8 = alloca i8, align 1
  store ptr %0, ptr %5, align 8, !tbaa !3
  store double %1, ptr %6, align 8, !tbaa !33
  store double %2, ptr %7, align 8, !tbaa !33
  %9 = zext i1 %3 to i8
  store i8 %9, ptr %8, align 1, !tbaa !34
  %10 = load ptr, ptr %5, align 8
  %11 = load double, ptr %6, align 8, !tbaa !33
  %12 = fcmp olt double %11, 0.000000e+00
  br i1 %12, label %13, label %17

13:                                               ; preds = %4
  %14 = getelementptr inbounds nuw %"class.cv::ppf_match_3d::PPF3DDetector", ptr %10, i32 0, i32 4
  %15 = load double, ptr %14, align 8, !tbaa !10
  %16 = getelementptr inbounds nuw %"class.cv::ppf_match_3d::PPF3DDetector", ptr %10, i32 0, i32 13
  store double %15, ptr %16, align 8, !tbaa !35
  br label %20

17:                                               ; preds = %4
  %18 = load double, ptr %6, align 8, !tbaa !33
  %19 = getelementptr inbounds nuw %"class.cv::ppf_match_3d::PPF3DDetector", ptr %10, i32 0, i32 13
  store double %18, ptr %19, align 8, !tbaa !35
  br label %20

20:                                               ; preds = %17, %13
  %21 = load double, ptr %7, align 8, !tbaa !33
  %22 = fcmp olt double %21, 0.000000e+00
  br i1 %22, label %23, label %30

23:                                               ; preds = %20
  %24 = getelementptr inbounds nuw %"class.cv::ppf_match_3d::PPF3DDetector", ptr %10, i32 0, i32 1
  %25 = load double, ptr %24, align 8, !tbaa !29
  %26 = fdiv double 3.600000e+02, %25
  %27 = fdiv double %26, 1.800000e+02
  %28 = fmul double %27, 0x400921FB54442D18
  %29 = getelementptr inbounds nuw %"class.cv::ppf_match_3d::PPF3DDetector", ptr %10, i32 0, i32 14
  store double %28, ptr %29, align 8, !tbaa !36
  br label %33

30:                                               ; preds = %20
  %31 = load double, ptr %7, align 8, !tbaa !33
  %32 = getelementptr inbounds nuw %"class.cv::ppf_match_3d::PPF3DDetector", ptr %10, i32 0, i32 14
  store double %31, ptr %32, align 8, !tbaa !36
  br label %33

33:                                               ; preds = %30, %23
  %34 = load i8, ptr %8, align 1, !tbaa !34, !range !37, !noundef !38
  %35 = trunc i8 %34 to i1
  %36 = getelementptr inbounds nuw %"class.cv::ppf_match_3d::PPF3DDetector", ptr %10, i32 0, i32 15
  %37 = zext i1 %35 to i8
  store i8 %37, ptr %36, align 8, !tbaa !39
  ret void
}