; Function Attrs: mustprogress nofree norecurse nosync nounwind willreturn memory(argmem: readwrite) uwtable
define void @_ZN2cv12ppf_match_3d13PPF3DDetector15setSearchParamsEddb(ptr noundef nonnull align 8 captures(none) dereferenceable(297) initializes((272, 289)) %0, double noundef %1, double noundef %2, i1 noundef zeroext %3) local_unnamed_addr #4 align 2 {
  %5 = fcmp olt double %1, 0.000000e+00
  %6 = getelementptr inbounds nuw i8, ptr %0, i64 32
  %7 = load double, ptr %6, align 8
  %.sink = select i1 %5, double %7, double %1
  %8 = getelementptr inbounds nuw i8, ptr %0, i64 272
  store double %.sink, ptr %8, align 8, !tbaa !29
  %9 = fcmp olt double %2, 0.000000e+00
  %10 = getelementptr inbounds nuw i8, ptr %0, i64 8
  %11 = load double, ptr %10, align 8
  %12 = fdiv double 3.600000e+02, %11
  %13 = fdiv double %12, 1.800000e+02
  %14 = fmul double %13, 0x400921FB54442D18
  %.sink6 = select i1 %9, double %14, double %2
  %15 = getelementptr inbounds nuw i8, ptr %0, i64 280
  store double %.sink6, ptr %15, align 8, !tbaa !30
  %16 = zext i1 %3 to i8
  %17 = getelementptr inbounds nuw i8, ptr %0, i64 288
  store i8 %16, ptr %17, align 8, !tbaa !31
  ret void
}